target datalayout = "e-m:e-p270:32:32-p271:32:32-p272:64:64-i64:64-i128:128-f80:128-n8:16:32:64-S128"
target triple = "x86_64-pc-linux-gnu"

%struct._uuid_t = type { i16, i8, [16 x i8] }

; Function Attrs: nounwind uwtable
define hidden void @get_bluetooth_uuid(ptr dead_on_unwind noalias writable sret(%struct._uuid_t) align 2 %0, ptr noundef %1, i32 noundef %2, i32 noundef %3) #1 {
  %5 = alloca ptr, align 8
  %6 = alloca i32, align 4
  %7 = alloca i32, align 4
  store ptr %1, ptr %5, align 8
  store i32 %2, ptr %6, align 4
  store i32 %3, ptr %7, align 4
  call void @llvm.memset.p0.i64(ptr align 2 %0, i8 0, i64 20, i1 false)
  %8 = load i32, ptr %7, align 4
  %9 = icmp ne i32 %8, 2
  br i1 %9, label %10, label %17

10:                                               ; preds = %4
  %11 = load i32, ptr %7, align 4
  %12 = icmp ne i32 %11, 4
  br i1 %12, label %13, label %17

13:                                               ; preds = %10
  %14 = load i32, ptr %7, align 4
  %15 = icmp ne i32 %14, 16
  br i1 %15, label %16, label %17

16:                                               ; preds = %13
  br label %294

17:                                               ; preds = %13, %10, %4
  %18 = load i32, ptr %7, align 4
  %19 = trunc i32 %18 to i8
  %20 = getelementptr inbounds %struct._uuid_t, ptr %0, i32 0, i32 1
  store i8 %19, ptr %20, align 2
  %21 = load i32, ptr %7, align 4
  %22 = icmp eq i32 %21, 2
  br i1 %22, label %23, label %47

23:                                               ; preds = %17
  %24 = load ptr, ptr %5, align 8
  %25 = load i32, ptr %6, align 4
  %26 = add i32 %25, 1
  %27 = call zeroext i8 @tvb_get_guint8(ptr noundef %24, i32 noundef %26)
  %28 = getelementptr inbounds %struct._uuid_t, ptr %0, i32 0, i32 2
  %29 = getelementptr [16 x i8], ptr %28, i64 0, i64 0
  store i8 %27, ptr %29, align 1
  %30 = load ptr, ptr %5, align 8
  %31 = load i32, ptr %6, align 4
  %32 = call zeroext i8 @tvb_get_guint8(ptr noundef %30, i32 noundef %31)
  %33 = getelementptr inbounds %struct._uuid_t, ptr %0, i32 0, i32 2
  %34 = getelementptr [16 x i8], ptr %33, i64 0, i64 1
  store i8 %32, ptr %34, align 1
  %35 = getelementptr inbounds %struct._uuid_t, ptr %0, i32 0, i32 2
  %36 = getelementptr [16 x i8], ptr %35, i64 0, i64 1
  %37 = load i8, ptr %36, align 1
  %38 = zext i8 %37 to i32
  %39 = getelementptr inbounds %struct._uuid_t, ptr %0, i32 0, i32 2
  %40 = getelementptr [16 x i8], ptr %39, i64 0, i64 0
  %41 = load i8, ptr %40, align 1
  %42 = zext i8 %41 to i32
  %43 = shl i32 %42, 8
  %44 = or i32 %38, %43
  %45 = trunc i32 %44 to i16
  %46 = getelementptr inbounds %struct._uuid_t, ptr %0, i32 0, i32 0
  store i16 %45, ptr %46, align 2
  br label %293

47:                                               ; preds = %17
  %48 = load i32, ptr %7, align 4
  %49 = icmp eq i32 %48, 4
  br i1 %49, label %50, label %99

50:                                               ; preds = %47
  %51 = load ptr, ptr %5, align 8
  %52 = load i32, ptr %6, align 4
  %53 = add i32 %52, 3
  %54 = call zeroext i8 @tvb_get_guint8(ptr noundef %51, i32 noundef %53)
  %55 = getelementptr inbounds %struct._uuid_t, ptr %0, i32 0, i32 2
  %56 = getelementptr [16 x i8], ptr %55, i64 0, i64 0
  store i8 %54, ptr %56, align 1
  %57 = load ptr, ptr %5, align 8
  %58 = load i32, ptr %6, align 4
  %59 = add i32 %58, 2
  %60 = call zeroext i8 @tvb_get_guint8(ptr noundef %57, i32 noundef %59)
  %61 = getelementptr inbounds %struct._uuid_t, ptr %0, i32 0, i32 2
  %62 = getelementptr [16 x i8], ptr %61, i64 0, i64 1
  store i8 %60, ptr %62, align 1
  %63 = load ptr, ptr %5, align 8
  %64 = load i32, ptr %6, align 4
  %65 = add i32 %64, 1
  %66 = call zeroext i8 @tvb_get_guint8(ptr noundef %63, i32 noundef %65)
  %67 = getelementptr inbounds %struct._uuid_t, ptr %0, i32 0, i32 2
  %68 = getelementptr [16 x i8], ptr %67, i64 0, i64 2
  store i8 %66, ptr %68, align 1
  %69 = load ptr, ptr %5, align 8
  %70 = load i32, ptr %6, align 4
  %71 = call zeroext i8 @tvb_get_guint8(ptr noundef %69, i32 noundef %70)
  %72 = getelementptr inbounds %struct._uuid_t, ptr %0, i32 0, i32 2
  %73 = getelementptr [16 x i8], ptr %72, i64 0, i64 3
  store i8 %71, ptr %73, align 1
  %74 = getelementptr inbounds %struct._uuid_t, ptr %0, i32 0, i32 2
  %75 = getelementptr [16 x i8], ptr %74, i64 0, i64 0
  %76 = load i8, ptr %75, align 1
  %77 = zext i8 %76 to i32
  %78 = icmp eq i32 %77, 0
  br i1 %78, label %79, label %98

79:                                               ; preds = %50
  %80 = getelementptr inbounds %struct._uuid_t, ptr %0, i32 0, i32 2
  %81 = getelementptr [16 x i8], ptr %80, i64 0, i64 1
  %82 = load i8, ptr %81, align 1
  %83 = zext i8 %82 to i32
  %84 = icmp eq i32 %83, 0
  br i1 %84, label %85, label %98

85:                                               ; preds = %79
  %86 = getelementptr inbounds %struct._uuid_t, ptr %0, i32 0, i32 2
  %87 = getelementptr [16 x i8], ptr %86, i64 0, i64 2
  %88 = load i8, ptr %87, align 1
  %89 = zext i8 %88 to i32
  %90 = getelementptr inbounds %struct._uuid_t, ptr %0, i32 0, i32 2
  %91 = getelementptr [16 x i8], ptr %90, i64 0, i64 3
  %92 = load i8, ptr %91, align 1
  %93 = zext i8 %92 to i32
  %94 = shl i32 %93, 8
  %95 = or i32 %89, %94
  %96 = trunc i32 %95 to i16
  %97 = getelementptr inbounds %struct._uuid_t, ptr %0, i32 0, i32 0
  store i16 %96, ptr %97, align 2
  br label %98

98:                                               ; preds = %85, %79, %50
  br label %292

99:                                               ; preds = %47
  %100 = load ptr, ptr %5, align 8
  %101 = load i32, ptr %6, align 4
  %102 = add i32 %101, 15
  %103 = call zeroext i8 @tvb_get_guint8(ptr noundef %100, i32 noundef %102)
  %104 = getelementptr inbounds %struct._uuid_t, ptr %0, i32 0, i32 2
  %105 = getelementptr [16 x i8], ptr %104, i64 0, i64 0
  store i8 %103, ptr %105, align 1
  %106 = load ptr, ptr %5, align 8
  %107 = load i32, ptr %6, align 4
  %108 = add i32 %107, 14
  %109 = call zeroext i8 @tvb_get_guint8(ptr noundef %106, i32 noundef %108)
  %110 = getelementptr inbounds %struct._uuid_t, ptr %0, i32 0, i32 2
  %111 = getelementptr [16 x i8], ptr %110, i64 0, i64 1
  store i8 %109, ptr %111, align 1
  %112 = load ptr, ptr %5, align 8
  %113 = load i32, ptr %6, align 4
  %114 = add i32 %113, 13
  %115 = call zeroext i8 @tvb_get_guint8(ptr noundef %112, i32 noundef %114)
  %116 = getelementptr inbounds %struct._uuid_t, ptr %0, i32 0, i32 2
  %117 = getelementptr [16 x i8], ptr %116, i64 0, i64 2
  store i8 %115, ptr %117, align 1
  %118 = load ptr, ptr %5, align 8
  %119 = load i32, ptr %6, align 4
  %120 = add i32 %119, 12
  %121 = call zeroext i8 @tvb_get_guint8(ptr noundef %118, i32 noundef %120)
  %122 = getelementptr inbounds %struct._uuid_t, ptr %0, i32 0, i32 2
  %123 = getelementptr [16 x i8], ptr %122, i64 0, i64 3
  store i8 %121, ptr %123, align 1
  %124 = load ptr, ptr %5, align 8
  %125 = load i32, ptr %6, align 4
  %126 = add i32 %125, 11
  %127 = call zeroext i8 @tvb_get_guint8(ptr noundef %124, i32 noundef %126)
  %128 = getelementptr inbounds %struct._uuid_t, ptr %0, i32 0, i32 2
  %129 = getelementptr [16 x i8], ptr %128, i64 0, i64 4
  store i8 %127, ptr %129, align 1
  %130 = load ptr, ptr %5, align 8
  %131 = load i32, ptr %6, align 4
  %132 = add i32 %131, 10
  %133 = call zeroext i8 @tvb_get_guint8(ptr noundef %130, i32 noundef %132)
  %134 = getelementptr inbounds %struct._uuid_t, ptr %0, i32 0, i32 2
  %135 = getelementptr [16 x i8], ptr %134, i64 0, i64 5
  store i8 %133, ptr %135, align 1
  %136 = load ptr, ptr %5, align 8
  %137 = load i32, ptr %6, align 4
  %138 = add i32 %137, 9
  %139 = call zeroext i8 @tvb_get_guint8(ptr noundef %136, i32 noundef %138)
  %140 = getelementptr inbounds %struct._uuid_t, ptr %0, i32 0, i32 2
  %141 = getelementptr [16 x i8], ptr %140, i64 0, i64 6
  store i8 %139, ptr %141, align 1
  %142 = load ptr, ptr %5, align 8
  %143 = load i32, ptr %6, align 4
  %144 = add i32 %143, 8
  %145 = call zeroext i8 @tvb_get_guint8(ptr noundef %142, i32 noundef %144)
  %146 = getelementptr inbounds %struct._uuid_t, ptr %0, i32 0, i32 2
  %147 = getelementptr [16 x i8], ptr %146, i64 0, i64 7
  store i8 %145, ptr %147, align 1
  %148 = load ptr, ptr %5, align 8
  %149 = load i32, ptr %6, align 4
  %150 = add i32 %149, 7
  %151 = call zeroext i8 @tvb_get_guint8(ptr noundef %148, i32 noundef %150)
  %152 = getelementptr inbounds %struct._uuid_t, ptr %0, i32 0, i32 2
  %153 = getelementptr [16 x i8], ptr %152, i64 0, i64 8
  store i8 %151, ptr %153, align 1
  %154 = load ptr, ptr %5, align 8
  %155 = load i32, ptr %6, align 4
  %156 = add i32 %155, 6
  %157 = call zeroext i8 @tvb_get_guint8(ptr noundef %154, i32 noundef %156)
  %158 = getelementptr inbounds %struct._uuid_t, ptr %0, i32 0, i32 2
  %159 = getelementptr [16 x i8], ptr %158, i64 0, i64 9
  store i8 %157, ptr %159, align 1
  %160 = load ptr, ptr %5, align 8
  %161 = load i32, ptr %6, align 4
  %162 = add i32 %161, 5
  %163 = call zeroext i8 @tvb_get_guint8(ptr noundef %160, i32 noundef %162)
  %164 = getelementptr inbounds %struct._uuid_t, ptr %0, i32 0, i32 2
  %165 = getelementptr [16 x i8], ptr %164, i64 0, i64 10
  store i8 %163, ptr %165, align 1
  %166 = load ptr, ptr %5, align 8
  %167 = load i32, ptr %6, align 4
  %168 = add i32 %167, 4
  %169 = call zeroext i8 @tvb_get_guint8(ptr noundef %166, i32 noundef %168)
  %170 = getelementptr inbounds %struct._uuid_t, ptr %0, i32 0, i32 2
  %171 = getelementptr [16 x i8], ptr %170, i64 0, i64 11
  store i8 %169, ptr %171, align 1
  %172 = load ptr, ptr %5, align 8
  %173 = load i32, ptr %6, align 4
  %174 = add i32 %173, 3
  %175 = call zeroext i8 @tvb_get_guint8(ptr noundef %172, i32 noundef %174)
  %176 = getelementptr inbounds %struct._uuid_t, ptr %0, i32 0, i32 2
  %177 = getelementptr [16 x i8], ptr %176, i64 0, i64 12
  store i8 %175, ptr %177, align 1
  %178 = load ptr, ptr %5, align 8
  %179 = load i32, ptr %6, align 4
  %180 = add i32 %179, 2
  %181 = call zeroext i8 @tvb_get_guint8(ptr noundef %178, i32 noundef %180)
  %182 = getelementptr inbounds %struct._uuid_t, ptr %0, i32 0, i32 2
  %183 = getelementptr [16 x i8], ptr %182, i64 0, i64 13
  store i8 %181, ptr %183, align 1
  %184 = load ptr, ptr %5, align 8
  %185 = load i32, ptr %6, align 4
  %186 = add i32 %185, 1
  %187 = call zeroext i8 @tvb_get_guint8(ptr noundef %184, i32 noundef %186)
  %188 = getelementptr inbounds %struct._uuid_t, ptr %0, i32 0, i32 2
  %189 = getelementptr [16 x i8], ptr %188, i64 0, i64 14
  store i8 %187, ptr %189, align 1
  %190 = load ptr, ptr %5, align 8
  %191 = load i32, ptr %6, align 4
  %192 = call zeroext i8 @tvb_get_guint8(ptr noundef %190, i32 noundef %191)
  %193 = getelementptr inbounds %struct._uuid_t, ptr %0, i32 0, i32 2
  %194 = getelementptr [16 x i8], ptr %193, i64 0, i64 15
  store i8 %192, ptr %194, align 1
  %195 = getelementptr inbounds %struct._uuid_t, ptr %0, i32 0, i32 2
  %196 = getelementptr [16 x i8], ptr %195, i64 0, i64 0
  %197 = load i8, ptr %196, align 1
  %198 = zext i8 %197 to i32
  %199 = icmp eq i32 %198, 0
  br i1 %199, label %200, label %291

200:                                              ; preds = %99
  %201 = getelementptr inbounds %struct._uuid_t, ptr %0, i32 0, i32 2
  %202 = getelementptr [16 x i8], ptr %201, i64 0, i64 1
  %203 = load i8, ptr %202, align 1
  %204 = zext i8 %203 to i32
  %205 = icmp eq i32 %204, 0
  br i1 %205, label %206, label %291

206:                                              ; preds = %200
  %207 = getelementptr inbounds %struct._uuid_t, ptr %0, i32 0, i32 2
  %208 = getelementptr [16 x i8], ptr %207, i64 0, i64 4
  %209 = load i8, ptr %208, align 1
  %210 = zext i8 %209 to i32
  %211 = icmp eq i32 %210, 0
  br i1 %211, label %212, label %291

212:                                              ; preds = %206
  %213 = getelementptr inbounds %struct._uuid_t, ptr %0, i32 0, i32 2
  %214 = getelementptr [16 x i8], ptr %213, i64 0, i64 5
  %215 = load i8, ptr %214, align 1
  %216 = zext i8 %215 to i32
  %217 = icmp eq i32 %216, 0
  br i1 %217, label %218, label %291

218:                                              ; preds = %212
  %219 = getelementptr inbounds %struct._uuid_t, ptr %0, i32 0, i32 2
  %220 = getelementptr [16 x i8], ptr %219, i64 0, i64 6
  %221 = load i8, ptr %220, align 1
  %222 = zext i8 %221 to i32
  %223 = icmp eq i32 %222, 16
  br i1 %223, label %224, label %291

224:                                              ; preds = %218
  %225 = getelementptr inbounds %struct._uuid_t, ptr %0, i32 0, i32 2
  %226 = getelementptr [16 x i8], ptr %225, i64 0, i64 7
  %227 = load i8, ptr %226, align 1
  %228 = zext i8 %227 to i32
  %229 = icmp eq i32 %228, 0
  br i1 %229, label %230, label %291

230:                                              ; preds = %224
  %231 = getelementptr inbounds %struct._uuid_t, ptr %0, i32 0, i32 2
  %232 = getelementptr [16 x i8], ptr %231, i64 0, i64 8
  %233 = load i8, ptr %232, align 1
  %234 = zext i8 %233 to i32
  %235 = icmp eq i32 %234, 128
  br i1 %235, label %236, label %291

236:                                              ; preds = %230
  %237 = getelementptr inbounds %struct._uuid_t, ptr %0, i32 0, i32 2
  %238 = getelementptr [16 x i8], ptr %237, i64 0, i64 9
  %239 = load i8, ptr %238, align 1
  %240 = zext i8 %239 to i32
  %241 = icmp eq i32 %240, 0
  br i1 %241, label %242, label %291

242:                                              ; preds = %236
  %243 = getelementptr inbounds %struct._uuid_t, ptr %0, i32 0, i32 2
  %244 = getelementptr [16 x i8], ptr %243, i64 0, i64 10
  %245 = load i8, ptr %244, align 1
  %246 = zext i8 %245 to i32
  %247 = icmp eq i32 %246, 0
  br i1 %247, label %248, label %291

248:                                              ; preds = %242
  %249 = getelementptr inbounds %struct._uuid_t, ptr %0, i32 0, i32 2
  %250 = getelementptr [16 x i8], ptr %249, i64 0, i64 11
  %251 = load i8, ptr %250, align 1
  %252 = zext i8 %251 to i32
  %253 = icmp eq i32 %252, 128
  br i1 %253, label %254, label %291

254:                                              ; preds = %248
  %255 = getelementptr inbounds %struct._uuid_t, ptr %0, i32 0, i32 2
  %256 = getelementptr [16 x i8], ptr %255, i64 0, i64 12
  %257 = load i8, ptr %256, align 1
  %258 = zext i8 %257 to i32
  %259 = icmp eq i32 %258, 95
  br i1 %259, label %260, label %291

260:                                              ; preds = %254
  %261 = getelementptr inbounds %struct._uuid_t, ptr %0, i32 0, i32 2
  %262 = getelementptr [16 x i8], ptr %261, i64 0, i64 13
  %263 = load i8, ptr %262, align 1
  %264 = zext i8 %263 to i32
  %265 = icmp eq i32 %264, 155
  br i1 %265, label %266, label %291

266:                                              ; preds = %260
  %267 = getelementptr inbounds %struct._uuid_t, ptr %0, i32 0, i32 2
  %268 = getelementptr [16 x i8], ptr %267, i64 0, i64 14
  %269 = load i8, ptr %268, align 1
  %270 = zext i8 %269 to i32
  %271 = icmp eq i32 %270, 52
  br i1 %271, label %272, label %291

272:                                              ; preds = %266
  %273 = getelementptr inbounds %struct._uuid_t, ptr %0, i32 0, i32 2
  %274 = getelementptr [16 x i8], ptr %273, i64 0, i64 15
  %275 = load i8, ptr %274, align 1
  %276 = zext i8 %275 to i32
  %277 = icmp eq i32 %276, 251
  br i1 %277, label %278, label %291

278:                                              ; preds = %272
  %279 = getelementptr inbounds %struct._uuid_t, ptr %0, i32 0, i32 2
  %280 = getelementptr [16 x i8], ptr %279, i64 0, i64 2
  %281 = load i8, ptr %280, align 1
  %282 = zext i8 %281 to i32
  %283 = getelementptr inbounds %struct._uuid_t, ptr %0, i32 0, i32 2
  %284 = getelementptr [16 x i8], ptr %283, i64 0, i64 3
  %285 = load i8, ptr %284, align 1
  %286 = zext i8 %285 to i32
  %287 = shl i32 %286, 8
  %288 = or i32 %282, %287
  %289 = trunc i32 %288 to i16
  %290 = getelementptr inbounds %struct._uuid_t, ptr %0, i32 0, i32 0
  store i16 %289, ptr %290, align 2
  br label %291

291:                                              ; preds = %278, %272, %266, %260, %254, %248, %242, %236, %230, %224, %218, %212, %206, %200, %99
  br label %292

292:                                              ; preds = %291, %98
  br label %293

293:                                              ; preds = %292, %23
  br label %294

294:                                              ; preds = %293, %16
  ret void
}