; Function Attrs: nounwind uwtable
define hidden void @get_bluetooth_uuid(ptr dead_on_unwind noalias writable writeonly sret(%struct._uuid_t) align 2 captures(none) initializes((0, 20)) %0, ptr noundef %1, i32 noundef %2, i32 noundef %3) local_unnamed_addr #1 {
  tail call void @llvm.memset.p0.i64(ptr noundef nonnull align 2 dereferenceable(20) %0, i8 0, i64 20, i1 false)
  switch i32 %3, label %92 [
    i32 16, label %5
    i32 4, label %5
    i32 2, label %5
  ]

5:                                                ; preds = %4, %4, %4
  %6 = trunc nuw i32 %3 to i8
  %7 = getelementptr inbounds nuw i8, ptr %0, i64 2
  store i8 %6, ptr %7, align 2
  %8 = getelementptr inbounds nuw i8, ptr %0, i64 3
  switch i32 %3, label %27 [
    i32 2, label %9
    i32 4, label %14
  ]

9:                                                ; preds = %5
  %10 = add i32 %2, 1
  %11 = tail call zeroext i8 @tvb_get_guint8(ptr noundef %1, i32 noundef %10) #9
  store i8 %11, ptr %8, align 1
  %12 = tail call zeroext i8 @tvb_get_guint8(ptr noundef %1, i32 noundef %2) #9
  %13 = getelementptr inbounds nuw i8, ptr %0, i64 4
  store i8 %12, ptr %13, align 2
  br label %.sink.split

14:                                               ; preds = %5
  %15 = add i32 %2, 3
  %16 = tail call zeroext i8 @tvb_get_guint8(ptr noundef %1, i32 noundef %15) #9
  store i8 %16, ptr %8, align 1
  %17 = add i32 %2, 2
  %18 = tail call zeroext i8 @tvb_get_guint8(ptr noundef %1, i32 noundef %17) #9
  %19 = getelementptr inbounds nuw i8, ptr %0, i64 4
  store i8 %18, ptr %19, align 2
  %20 = add i32 %2, 1
  %21 = tail call zeroext i8 @tvb_get_guint8(ptr noundef %1, i32 noundef %20) #9
  %22 = getelementptr inbounds nuw i8, ptr %0, i64 5
  store i8 %21, ptr %22, align 1
  %23 = tail call zeroext i8 @tvb_get_guint8(ptr noundef %1, i32 noundef %2) #9
  %24 = getelementptr inbounds nuw i8, ptr %0, i64 6
  store i8 %23, ptr %24, align 2
  %25 = icmp eq i8 %16, 0
  %26 = icmp eq i8 %18, 0
  %or.cond8 = select i1 %25, i1 %26, i1 false
  br i1 %or.cond8, label %.sink.split, label %92

27:                                               ; preds = %5
  %28 = add i32 %2, 15
  %29 = tail call zeroext i8 @tvb_get_guint8(ptr noundef %1, i32 noundef %28) #9
  store i8 %29, ptr %8, align 1
  %30 = add i32 %2, 14
  %31 = tail call zeroext i8 @tvb_get_guint8(ptr noundef %1, i32 noundef %30) #9
  %32 = getelementptr inbounds nuw i8, ptr %0, i64 4
  store i8 %31, ptr %32, align 2
  %33 = add i32 %2, 13
  %34 = tail call zeroext i8 @tvb_get_guint8(ptr noundef %1, i32 noundef %33) #9
  %35 = getelementptr inbounds nuw i8, ptr %0, i64 5
  store i8 %34, ptr %35, align 1
  %36 = add i32 %2, 12
  %37 = tail call zeroext i8 @tvb_get_guint8(ptr noundef %1, i32 noundef %36) #9
  %38 = getelementptr inbounds nuw i8, ptr %0, i64 6
  store i8 %37, ptr %38, align 2
  %39 = add i32 %2, 11
  %40 = tail call zeroext i8 @tvb_get_guint8(ptr noundef %1, i32 noundef %39) #9
  %41 = getelementptr inbounds nuw i8, ptr %0, i64 7
  store i8 %40, ptr %41, align 1
  %42 = add i32 %2, 10
  %43 = tail call zeroext i8 @tvb_get_guint8(ptr noundef %1, i32 noundef %42) #9
  %44 = getelementptr inbounds nuw i8, ptr %0, i64 8
  store i8 %43, ptr %44, align 2
  %45 = add i32 %2, 9
  %46 = tail call zeroext i8 @tvb_get_guint8(ptr noundef %1, i32 noundef %45) #9
  %47 = getelementptr inbounds nuw i8, ptr %0, i64 9
  store i8 %46, ptr %47, align 1
  %48 = add i32 %2, 8
  %49 = tail call zeroext i8 @tvb_get_guint8(ptr noundef %1, i32 noundef %48) #9
  %50 = getelementptr inbounds nuw i8, ptr %0, i64 10
  store i8 %49, ptr %50, align 2
  %51 = add i32 %2, 7
  %52 = tail call zeroext i8 @tvb_get_guint8(ptr noundef %1, i32 noundef %51) #9
  %53 = getelementptr inbounds nuw i8, ptr %0, i64 11
  store i8 %52, ptr %53, align 1
  %54 = add i32 %2, 6
  %55 = tail call zeroext i8 @tvb_get_guint8(ptr noundef %1, i32 noundef %54) #9
  %56 = getelementptr inbounds nuw i8, ptr %0, i64 12
  store i8 %55, ptr %56, align 2
  %57 = add i32 %2, 5
  %58 = tail call zeroext i8 @tvb_get_guint8(ptr noundef %1, i32 noundef %57) #9
  %59 = getelementptr inbounds nuw i8, ptr %0, i64 13
  store i8 %58, ptr %59, align 1
  %60 = add i32 %2, 4
  %61 = tail call zeroext i8 @tvb_get_guint8(ptr noundef %1, i32 noundef %60) #9
  %62 = getelementptr inbounds nuw i8, ptr %0, i64 14
  store i8 %61, ptr %62, align 2
  %63 = add i32 %2, 3
  %64 = tail call zeroext i8 @tvb_get_guint8(ptr noundef %1, i32 noundef %63) #9
  %65 = getelementptr inbounds nuw i8, ptr %0, i64 15
  store i8 %64, ptr %65, align 1
  %66 = add i32 %2, 2
  %67 = tail call zeroext i8 @tvb_get_guint8(ptr noundef %1, i32 noundef %66) #9
  %68 = getelementptr inbounds nuw i8, ptr %0, i64 16
  store i8 %67, ptr %68, align 2
  %69 = add i32 %2, 1
  %70 = tail call zeroext i8 @tvb_get_guint8(ptr noundef %1, i32 noundef %69) #9
  %71 = getelementptr inbounds nuw i8, ptr %0, i64 17
  store i8 %70, ptr %71, align 1
  %72 = tail call zeroext i8 @tvb_get_guint8(ptr noundef %1, i32 noundef %2) #9
  %73 = getelementptr inbounds nuw i8, ptr %0, i64 18
  store i8 %72, ptr %73, align 2
  %74 = icmp eq i8 %29, 0
  %75 = icmp eq i8 %31, 0
  %or.cond13 = select i1 %74, i1 %75, i1 false
  %76 = icmp eq i8 %40, 0
  %or.cond18 = select i1 %or.cond13, i1 %76, i1 false
  %77 = icmp eq i8 %43, 0
  %or.cond23 = select i1 %or.cond18, i1 %77, i1 false
  %78 = icmp eq i8 %46, 16
  %or.cond28 = select i1 %or.cond23, i1 %78, i1 false
  %79 = icmp eq i8 %49, 0
  %or.cond33 = select i1 %or.cond28, i1 %79, i1 false
  %80 = icmp eq i8 %52, -128
  %or.cond38 = select i1 %or.cond33, i1 %80, i1 false
  %81 = icmp eq i8 %55, 0
  %or.cond43 = select i1 %or.cond38, i1 %81, i1 false
  %82 = icmp eq i8 %58, 0
  %or.cond48 = select i1 %or.cond43, i1 %82, i1 false
  %83 = icmp eq i8 %61, -128
  %or.cond53 = select i1 %or.cond48, i1 %83, i1 false
  %84 = icmp eq i8 %64, 95
  %or.cond58 = select i1 %or.cond53, i1 %84, i1 false
  %85 = icmp eq i8 %67, -101
  %or.cond63 = select i1 %or.cond58, i1 %85, i1 false
  %86 = icmp eq i8 %70, 52
  %or.cond68 = select i1 %or.cond63, i1 %86, i1 false
  %87 = icmp eq i8 %72, -5
  %or.cond73 = select i1 %or.cond68, i1 %87, i1 false
  br i1 %or.cond73, label %.sink.split, label %92

.sink.split:                                      ; preds = %27, %14, %9
  %.sink = phi i8 [ %12, %9 ], [ %21, %14 ], [ %34, %27 ]
  %.sink124 = phi i8 [ %11, %9 ], [ %23, %14 ], [ %37, %27 ]
  %88 = zext i8 %.sink to i16
  %89 = zext i8 %.sink124 to i16
  %90 = shl nuw i16 %89, 8
  %91 = or disjoint i16 %90, %88
  store i16 %91, ptr %0, align 2
  br label %92

92:                                               ; preds = %.sink.split, %4, %27, %14
  ret void
}